; Function Attrs: nounwind uwtable
define void @Gia_ManBmcAddCnfNew(ptr noundef %0, i32 noundef %1, i32 noundef %2) local_unnamed_addr #0 {
  %4 = icmp slt i32 %1, %2
  br i1 %4, label %.lr.ph.preheader, label %._crit_edge

.lr.ph.preheader:                                 ; preds = %3
  %5 = sext i32 %1 to i64
  br label %.lr.ph

.lr.ph:                                           ; preds = %.lr.ph.preheader, %20
  %indvars.iv = phi i64 [ %5, %.lr.ph.preheader ], [ %indvars.iv.next, %20 ]
  %6 = load ptr, ptr %0, align 8, !tbaa !105
  %7 = getelementptr i8, ptr %6, i64 32
  %.val9 = load ptr, ptr %7, align 8, !tbaa !32
  %8 = getelementptr i8, ptr %6, i64 72
  %.val10 = load ptr, ptr %8, align 8, !tbaa !3
  %9 = getelementptr i8, ptr %.val10, i64 8
  %.val10.val = load ptr, ptr %9, align 8, !tbaa !37
  %10 = getelementptr inbounds i32, ptr %.val10.val, i64 %indvars.iv
  %11 = load i32, ptr %10, align 4, !tbaa !38
  %12 = sext i32 %11 to i64
  %13 = getelementptr inbounds %struct.Gia_Obj_t_, ptr %.val9, i64 %12
  %14 = load i64, ptr %13, align 4
  %15 = and i64 %14, 536870911
  %16 = sub nsw i64 0, %15
  %17 = getelementptr inbounds %struct.Gia_Obj_t_, ptr %13, i64 %16
  %18 = icmp eq ptr %17, %.val9
  br i1 %18, label %20, label %19

19:                                               ; preds = %.lr.ph
  tail call void @Gia_ManBmcAddCnfNew_rec(ptr noundef nonnull %0, ptr noundef nonnull %13)
  br label %20

20:                                               ; preds = %.lr.ph, %19
  %indvars.iv.next = add nsw i64 %indvars.iv, 1
  %lftr.wideiv = trunc i64 %indvars.iv.next to i32
  %exitcond.not = icmp eq i32 %2, %lftr.wideiv
  br i1 %exitcond.not, label %._crit_edge, label %.lr.ph, !llvm.loop !145

._crit_edge:                                      ; preds = %20, %3
  ret void
}